; Function Attrs: mustprogress uwtable
define void @_ZN9grpc_core11ThreadQuota7ReleaseEm(ptr noundef nonnull align 8 dereferenceable(40) %0, i64 noundef %1) local_unnamed_addr #3 align 2 personality ptr @__gxx_personality_v0 {
  %3 = alloca %"class.absl::lts_20240722::log_internal::LogMessageFatal", align 8
  %4 = getelementptr inbounds nuw i8, ptr %0, i64 16
  tail call void @_ZN4absl12lts_202407225Mutex4LockEv(ptr noundef nonnull align 8 dereferenceable(8) %4)
  %5 = getelementptr inbounds nuw i8, ptr %0, i64 24
  %6 = load i64, ptr %5, align 8, !tbaa !17
  %.not = icmp ugt i64 %1, %6
  br i1 %.not, label %7, label %.critedge, !prof !18

7:                                                ; preds = %2
  call void @llvm.lifetime.start.p0(i64 16, ptr nonnull %3) #11
  invoke void @_ZN4absl12lts_2024072212log_internal15LogMessageFatalC1EPKciSt17basic_string_viewIcSt11char_traitsIcEE(ptr noundef nonnull align 8 dereferenceable(16) %3, ptr noundef nonnull @.str, i32 noundef 41, i64 25, ptr nonnull @.str.1) #14
          to label %8 unwind label %9

8:                                                ; preds = %7
  call void @_ZN4absl12lts_2024072212log_internal15LogMessageFatalD1Ev(ptr noundef nonnull align 8 dereferenceable(16) %3) #13
  unreachable

9:                                                ; preds = %7
  %10 = landingpad { ptr, i32 }
          cleanup
  call void @llvm.lifetime.end.p0(i64 16, ptr nonnull %3) #11
  invoke void @_ZN4absl12lts_202407225Mutex6UnlockEv(ptr noundef nonnull align 8 dereferenceable(8) %4)
          to label %_ZN4absl12lts_202407229MutexLockD2Ev.exit unwind label %11

11:                                               ; preds = %9
  %12 = landingpad { ptr, i32 }
          catch ptr null
  %13 = extractvalue { ptr, i32 } %12, 0
  call void @__clang_call_terminate(ptr %13) #13
  unreachable

_ZN4absl12lts_202407229MutexLockD2Ev.exit:        ; preds = %9
  resume { ptr, i32 } %10

.critedge:                                        ; preds = %2
  %14 = sub nuw i64 %6, %1
  store i64 %14, ptr %5, align 8, !tbaa !17
  invoke void @_ZN4absl12lts_202407225Mutex6UnlockEv(ptr noundef nonnull align 8 dereferenceable(8) %4)
          to label %_ZN4absl12lts_202407229MutexLockD2Ev.exit8 unwind label %15

15:                                               ; preds = %.critedge
  %16 = landingpad { ptr, i32 }
          catch ptr null
  %17 = extractvalue { ptr, i32 } %16, 0
  tail call void @__clang_call_terminate(ptr %17) #13
  unreachable

_ZN4absl12lts_202407229MutexLockD2Ev.exit8:       ; preds = %.critedge
  ret void
}